; Function Attrs: nounwind uwtable
define dso_local noundef ptr @makeTypeNameFromNameList(ptr noundef %0) local_unnamed_addr #0 {
  %2 = tail call noundef ptr @palloc0(i64 noundef 56) #7
  store i32 68, ptr %2, align 4
  %3 = getelementptr inbounds nuw i8, ptr %2, i64 8
  store ptr %0, ptr %3, align 8
  %4 = getelementptr inbounds nuw i8, ptr %2, i64 24
  store ptr null, ptr %4, align 8
  %5 = getelementptr inbounds nuw i8, ptr %2, i64 32
  store i32 -1, ptr %5, align 8
  %6 = getelementptr inbounds nuw i8, ptr %2, i64 48
  store i32 -1, ptr %6, align 8
  ret ptr %2
}